target datalayout = "e-m:e-p270:32:32-p271:32:32-p272:64:64-i64:64-i128:128-f80:128-n8:16:32:64-S128"
target triple = "x86_64-pc-linux-gnu"

%class.ErrorHandler = type <{ i32, i32, i8, i8, i8, i8, i8, i8, [2 x i8] }>
%class.RarTime = type { i64 }
%class.File = type { ptr, i64, i8, i32, i8, i8, i32, i8, i8, i8, i8, i8, i64, i8, [2048 x i32], i32, ptr }
%class.RAROptions = type { i32, i32, i8, i8, i8, i64, [2048 x i32], [2048 x i32], i32, i8, [2048 x i32], [2048 x i32], i32, i32, i32, i32, [2048 x i32], [2048 x i32], i8, i8, i8, [2048 x i32], i32, i32, i32, i32, i32, i32, i32, i32, i8, i8, i8, i8, i8, i32, i32, i8, i8, i8, i8, i8, i32, i32, i64, i32, i8, i8, i8, i32, i32, i8, i8, i8, i8, i32, i32, i8, i8, i8, i8, [128 x i32], [128 x i32], i8, i8, i8, i8, i8, %class.RarTime, %class.RarTime, %class.RarTime, i8, i8, i8, %class.RarTime, %class.RarTime, %class.RarTime, i8, i8, i8, i64, i64, i8, i8, i8, [16 x %struct.FilterMode], [2048 x i32], i32, i32, i32, i32, i32, i32, i8, [2048 x i32], i32, [2048 x i32], i32, i32, i64, ptr, ptr, ptr }
%struct.FilterMode = type { i32, i32, i32 }
%class.uiMsgStore = type <{ [8 x ptr], [8 x i32], i32, i32, i32, [4 x i8] }>
%class.RecVolumes5 = type { %class.Array.8, ptr, ptr, ptr, ptr, i64, i32, i32, i32, ptr, i32, i32, ptr }
%class.Array.8 = type { ptr, i64, i64, i64 }
%struct.RecVolItem = type { ptr, [2048 x i32], i32, i64, i8, i8 }

@ErrHandler = external global %class.ErrorHandler, align 4
@.str.4 = private unnamed_addr constant [6 x i32] [i32 32, i32 32, i32 32, i32 32, i32 32, i32 0], align 4
@.str.6 = private unnamed_addr constant [1 x i32] zeroinitializer, align 4
@.str.7 = private unnamed_addr constant [6 x i32] [i32 37, i32 115, i32 37, i32 115, i32 32, i32 0], align 4
@.str.8 = private unnamed_addr constant [7 x i32] [i32 8, i32 8, i32 8, i32 8, i32 8, i32 32, i32 0], align 4

; Function Attrs: mustprogress nounwind uwtable
define linkonce_odr void @_Z9uiMsgBaseR10uiMsgStore(ptr noundef nonnull align 8 dereferenceable(108) %0) #2 comdat {
  %2 = alloca ptr, align 8
  store ptr %0, ptr %2, align 8
  ret void
}

; Function Attrs: mustprogress uwtable
define linkonce_odr void @_Z9uiMsgBaseIRA2048_wJEEvR10uiMsgStoreOT_DpOT0_(ptr noundef nonnull align 8 dereferenceable(108) %0, ptr noundef nonnull align 4 dereferenceable(8192) %1) #0 comdat {
  %3 = alloca ptr, align 8
  %4 = alloca ptr, align 8
  store ptr %0, ptr %3, align 8
  store ptr %1, ptr %4, align 8
  %5 = load ptr, ptr %3, align 8
  %6 = load ptr, ptr %4, align 8
  %7 = getelementptr inbounds [2048 x i32], ptr %6, i64 0, i64 0
  %8 = call noundef nonnull align 8 dereferenceable(108) ptr @_ZN10uiMsgStorelsEPKw(ptr noundef nonnull align 8 dereferenceable(108) %5, ptr noundef %7)
  %9 = load ptr, ptr %3, align 8
  call void @_Z9uiMsgBaseR10uiMsgStore(ptr noundef nonnull align 8 dereferenceable(108) %9)
  ret void
}

; Function Attrs: mustprogress nounwind uwtable
define linkonce_odr noundef nonnull align 8 dereferenceable(108) ptr @_ZN10uiMsgStorelsEPKw(ptr noundef nonnull align 8 dereferenceable(108) %0, ptr noundef %1) #2 comdat align 2 {
  %3 = alloca ptr, align 8
  %4 = alloca ptr, align 8
  store ptr %0, ptr %3, align 8
  store ptr %1, ptr %4, align 8
  %5 = load ptr, ptr %3, align 8
  %6 = getelementptr inbounds %class.uiMsgStore, ptr %5, i32 0, i32 2
  %7 = load i32, ptr %6, align 8
  %8 = zext i32 %7 to i64
  %9 = icmp ult i64 %8, 8
  br i1 %9, label %10, label %18

10:                                               ; preds = %2
  %11 = load ptr, ptr %4, align 8
  %12 = getelementptr inbounds %class.uiMsgStore, ptr %5, i32 0, i32 0
  %13 = getelementptr inbounds %class.uiMsgStore, ptr %5, i32 0, i32 2
  %14 = load i32, ptr %13, align 8
  %15 = add i32 %14, 1
  store i32 %15, ptr %13, align 8
  %16 = zext i32 %14 to i64
  %17 = getelementptr inbounds [8 x ptr], ptr %12, i64 0, i64 %16
  store ptr %11, ptr %17, align 8
  br label %18

18:                                               ; preds = %10, %2
  ret ptr %5
}

; Function Attrs: mustprogress uwtable
define linkonce_odr void @_Z9uiMsgBaseIRA2048_wJS1_EEvR10uiMsgStoreOT_DpOT0_(ptr noundef nonnull align 8 dereferenceable(108) %0, ptr noundef nonnull align 4 dereferenceable(8192) %1, ptr noundef nonnull align 4 dereferenceable(8192) %2) #0 comdat {
  %4 = alloca ptr, align 8
  %5 = alloca ptr, align 8
  %6 = alloca ptr, align 8
  store ptr %0, ptr %4, align 8
  store ptr %1, ptr %5, align 8
  store ptr %2, ptr %6, align 8
  %7 = load ptr, ptr %4, align 8
  %8 = load ptr, ptr %5, align 8
  %9 = getelementptr inbounds [2048 x i32], ptr %8, i64 0, i64 0
  %10 = call noundef nonnull align 8 dereferenceable(108) ptr @_ZN10uiMsgStorelsEPKw(ptr noundef nonnull align 8 dereferenceable(108) %7, ptr noundef %9)
  %11 = load ptr, ptr %4, align 8
  %12 = load ptr, ptr %6, align 8
  call void @_Z9uiMsgBaseIRA2048_wJEEvR10uiMsgStoreOT_DpOT0_(ptr noundef nonnull align 8 dereferenceable(108) %11, ptr noundef nonnull align 4 dereferenceable(8192) %12)
  ret void
}

; Function Attrs: mustprogress nounwind uwtable
define linkonce_odr void @_ZN10uiMsgStoreC2E14UIMESSAGE_CODE(ptr noundef nonnull align 8 dereferenceable(108) %0, i32 noundef %1) unnamed_addr #2 comdat align 2 {
  %3 = alloca ptr, align 8
  %4 = alloca i32, align 4
  %5 = alloca i32, align 4
  store ptr %0, ptr %3, align 8
  store i32 %1, ptr %4, align 4
  %6 = load ptr, ptr %3, align 8
  store i32 0, ptr %5, align 4
  br label %7

7:                                                ; preds = %16, %2
  %8 = load i32, ptr %5, align 4
  %9 = zext i32 %8 to i64
  %10 = icmp ult i64 %9, 8
  br i1 %10, label %11, label %19

11:                                               ; preds = %7
  %12 = getelementptr inbounds %class.uiMsgStore, ptr %6, i32 0, i32 0
  %13 = load i32, ptr %5, align 4
  %14 = zext i32 %13 to i64
  %15 = getelementptr inbounds [8 x ptr], ptr %12, i64 0, i64 %14
  store ptr @.str.6, ptr %15, align 8
  br label %16

16:                                               ; preds = %11
  %17 = load i32, ptr %5, align 4
  %18 = add i32 %17, 1
  store i32 %18, ptr %5, align 4
  br label %7, !llvm.loop !56

19:                                               ; preds = %7
  %20 = getelementptr inbounds %class.uiMsgStore, ptr %6, i32 0, i32 1
  %21 = getelementptr inbounds [8 x i32], ptr %20, i64 0, i64 0
  call void @llvm.memset.p0.i64(ptr align 8 %21, i8 0, i64 32, i1 false)
  %22 = getelementptr inbounds %class.uiMsgStore, ptr %6, i32 0, i32 2
  store i32 0, ptr %22, align 8
  %23 = getelementptr inbounds %class.uiMsgStore, ptr %6, i32 0, i32 3
  store i32 0, ptr %23, align 4
  %24 = load i32, ptr %4, align 4
  %25 = getelementptr inbounds %class.uiMsgStore, ptr %6, i32 0, i32 4
  store i32 %24, ptr %25, align 8
  ret void
}

; Function Attrs: mustprogress uwtable
define linkonce_odr void @_Z5uiMsgIJRA2048_wS1_EEv14UIMESSAGE_CODEDpOT_(i32 noundef %0, ptr noundef nonnull align 4 dereferenceable(8192) %1, ptr noundef nonnull align 4 dereferenceable(8192) %2) #0 comdat {
  %4 = alloca i32, align 4
  %5 = alloca ptr, align 8
  %6 = alloca ptr, align 8
  %7 = alloca %class.uiMsgStore, align 8
  store i32 %0, ptr %4, align 4
  store ptr %1, ptr %5, align 8
  store ptr %2, ptr %6, align 8
  %8 = load i32, ptr %4, align 4
  call void @_ZN10uiMsgStoreC2E14UIMESSAGE_CODE(ptr noundef nonnull align 8 dereferenceable(108) %7, i32 noundef %8)
  %9 = load ptr, ptr %5, align 8
  %10 = load ptr, ptr %6, align 8
  call void @_Z9uiMsgBaseIRA2048_wJS1_EEvR10uiMsgStoreOT_DpOT0_(ptr noundef nonnull align 8 dereferenceable(108) %7, ptr noundef nonnull align 4 dereferenceable(8192) %9, ptr noundef nonnull align 4 dereferenceable(8192) %10)
  call void @_ZN10uiMsgStore3MsgEv(ptr noundef nonnull align 8 dereferenceable(108) %7)
  ret void
}

; Function Attrs: mustprogress nounwind uwtable
define linkonce_odr noundef nonnull align 8 dereferenceable(8224) ptr @_ZNK5ArrayI10RecVolItemEixEm(ptr noundef nonnull align 8 dereferenceable(32) %0, i64 noundef %1) #2 comdat align 2 {
  %3 = alloca ptr, align 8
  %4 = alloca i64, align 8
  store ptr %0, ptr %3, align 8
  store i64 %1, ptr %4, align 8
  %5 = load ptr, ptr %3, align 8
  %6 = getelementptr inbounds %class.Array.8, ptr %5, i32 0, i32 0
  %7 = load ptr, ptr %6, align 8
  %8 = load i64, ptr %4, align 8
  %9 = getelementptr inbounds %struct.RecVolItem, ptr %7, i64 %8
  ret ptr %9
}

; Function Attrs: mustprogress nounwind uwtable
define linkonce_odr void @_Z7mprintfPKwz(ptr noundef %0, ...) #2 comdat {
  %2 = alloca ptr, align 8
  store ptr %0, ptr %2, align 8
  ret void
}

; Function Attrs: mustprogress uwtable
define void @_ZN11RecVolumes54TestEP11CommandDataPKw(ptr noundef nonnull align 8 dereferenceable(112) %0, ptr noundef %1, ptr noundef %2) #0 align 2 personality ptr @__gxx_personality_v0 {
  %4 = alloca ptr, align 8
  %5 = alloca ptr, align 8
  %6 = alloca ptr, align 8
  %7 = alloca [2048 x i32], align 16
  %8 = alloca i32, align 4
  %9 = alloca %class.File, align 8
  %10 = alloca ptr, align 8
  %11 = alloca i32, align 4
  %12 = alloca i32, align 4
  %13 = alloca i8, align 1
  %14 = alloca i32, align 4
  %15 = alloca i32, align 4
  store ptr %0, ptr %4, align 8
  store ptr %1, ptr %5, align 8
  store ptr %2, ptr %6, align 8
  %16 = load ptr, ptr %4, align 8
  %17 = getelementptr inbounds [2048 x i32], ptr %7, i64 0, i64 0
  %18 = load ptr, ptr %6, align 8
  call void @_Z8wcsncpyzPwPKwm(ptr noundef %17, ptr noundef %18, i64 noundef 2048)
  store i32 0, ptr %8, align 4
  br label %19

19:                                               ; preds = %81, %79, %3
  %20 = getelementptr inbounds [2048 x i32], ptr %7, i64 0, i64 0
  %21 = call noundef zeroext i1 @_Z9FileExistPKw(ptr noundef %20)
  br i1 %21, label %22, label %82

22:                                               ; preds = %19
  call void @_ZN4FileC1Ev(ptr noundef nonnull align 8 dereferenceable(8256) %9)
  %23 = getelementptr inbounds [2048 x i32], ptr %7, i64 0, i64 0
  %24 = invoke noundef zeroext i1 @_ZN4File4OpenEPKwj(ptr noundef nonnull align 8 dereferenceable(8256) %9, ptr noundef %23, i32 noundef 0)
          to label %25 unwind label %29

25:                                               ; preds = %22
  br i1 %24, label %33, label %26

26:                                               ; preds = %25
  %27 = getelementptr inbounds [2048 x i32], ptr %7, i64 0, i64 0
  invoke void @_ZN12ErrorHandler12OpenErrorMsgEPKw(ptr noundef nonnull align 4 dereferenceable(14) @ErrHandler, ptr noundef %27)
          to label %28 unwind label %29

28:                                               ; preds = %26
  store i32 2, ptr %12, align 4
  br label %79, !llvm.loop !53

29:                                               ; preds = %76, %74, %73, %71, %57, %48, %41, %40, %38, %33, %26, %22
  %30 = landingpad { ptr, i32 }
          cleanup
  %31 = extractvalue { ptr, i32 } %30, 0
  store ptr %31, ptr %10, align 8
  %32 = extractvalue { ptr, i32 } %30, 1
  store i32 %32, ptr %11, align 4
  call void @_ZN4FileD1Ev(ptr noundef nonnull align 8 dereferenceable(8256) %9) #11
  br label %83

33:                                               ; preds = %25
  %34 = getelementptr inbounds [2048 x i32], ptr %7, i64 0, i64 0
  %35 = invoke noundef zeroext i1 @_Z18uiStartFileExtractPKwbbb(ptr noundef %34, i1 noundef zeroext false, i1 noundef zeroext true, i1 noundef zeroext false)
          to label %36 unwind label %29

36:                                               ; preds = %33
  br i1 %35, label %38, label %37

37:                                               ; preds = %36
  store i32 1, ptr %12, align 4
  br label %79

38:                                               ; preds = %36
  %39 = getelementptr inbounds [2048 x i32], ptr %7, i64 0, i64 0
  invoke void (ptr, ...) @_Z7mprintfPKwz(ptr noundef @.str.6, ptr noundef %39)
          to label %40 unwind label %29

40:                                               ; preds = %38
  invoke void (ptr, ...) @_Z7mprintfPKwz(ptr noundef @.str.4)
          to label %41 unwind label %29

41:                                               ; preds = %40
  store i8 0, ptr %13, align 1
  %42 = load i32, ptr %8, align 4
  %43 = icmp eq i32 %42, 0
  %44 = invoke noundef i32 @_ZN11RecVolumes510ReadHeaderEP4Fileb(ptr noundef nonnull align 8 dereferenceable(112) %16, ptr noundef %9, i1 noundef zeroext %43)
          to label %45 unwind label %29

45:                                               ; preds = %41
  store i32 %44, ptr %14, align 4
  %46 = load i32, ptr %14, align 4
  %47 = icmp ne i32 %46, 0
  br i1 %47, label %48, label %68

48:                                               ; preds = %45
  %49 = load i32, ptr %8, align 4
  %50 = add i32 %49, 1
  store i32 %50, ptr %8, align 4
  %51 = load ptr, ptr %5, align 8
  %52 = getelementptr inbounds %class.RAROptions, ptr %51, i32 0, i32 30
  %53 = load i8, ptr %52, align 4
  %54 = trunc i8 %53 to i1
  %55 = select i1 %54, i32 0, i32 4
  %56 = or i32 8, %55
  invoke void @_Z11CalcFileSumP4FilePjPhjlj(ptr noundef %9, ptr noundef %15, ptr noundef null, i32 noundef 1, i64 noundef 9223372034707292159, i32 noundef %56)
          to label %57 unwind label %29

57:                                               ; preds = %48
  %58 = load i32, ptr %15, align 4
  %59 = getelementptr inbounds %class.RecVolumes5, ptr %16, i32 0, i32 0
  %60 = load i32, ptr %14, align 4
  %61 = zext i32 %60 to i64
  %62 = invoke noundef nonnull align 8 dereferenceable(8224) ptr @_ZNK5ArrayI10RecVolItemEixEm(ptr noundef nonnull align 8 dereferenceable(32) %59, i64 noundef %61)
          to label %63 unwind label %29

63:                                               ; preds = %57
  %64 = getelementptr inbounds %struct.RecVolItem, ptr %62, i32 0, i32 2
  %65 = load i32, ptr %64, align 8
  %66 = icmp eq i32 %58, %65
  %67 = zext i1 %66 to i8
  store i8 %67, ptr %13, align 1
  br label %68

68:                                               ; preds = %63, %45
  %69 = load i8, ptr %13, align 1
  %70 = trunc i8 %69 to i1
  br i1 %70, label %71, label %73

71:                                               ; preds = %68
  invoke void (ptr, ...) @_Z7mprintfPKwz(ptr noundef @.str.7, ptr noundef @.str.8, ptr noundef @.str.6)
          to label %72 unwind label %29

72:                                               ; preds = %71
  br label %76

73:                                               ; preds = %68
  invoke void @_Z5uiMsgIJRA2048_wS1_EEv14UIMESSAGE_CODEDpOT_(i32 noundef 3, ptr noundef nonnull align 4 dereferenceable(8192) %7, ptr noundef nonnull align 4 dereferenceable(8192) %7)
          to label %74 unwind label %29

74:                                               ; preds = %73
  invoke void @_ZN12ErrorHandler12SetErrorCodeE8RAR_EXIT(ptr noundef nonnull align 4 dereferenceable(14) @ErrHandler, i32 noundef 3)
          to label %75 unwind label %29

75:                                               ; preds = %74
  br label %76

76:                                               ; preds = %75, %72
  %77 = getelementptr inbounds [2048 x i32], ptr %7, i64 0, i64 0
  invoke void @_Z14NextVolumeNamePwjb(ptr noundef %77, i32 noundef 2048, i1 noundef zeroext false)
          to label %78 unwind label %29

78:                                               ; preds = %76
  store i32 0, ptr %12, align 4
  br label %79

79:                                               ; preds = %78, %37, %28
  call void @_ZN4FileD1Ev(ptr noundef nonnull align 8 dereferenceable(8256) %9) #11
  %80 = load i32, ptr %12, align 4
  switch i32 %80, label %88 [
    i32 0, label %81
    i32 2, label %19
    i32 1, label %82
  ]

81:                                               ; preds = %79
  br label %19, !llvm.loop !53

82:                                               ; preds = %79, %19
  ret void

83:                                               ; preds = %29
  %84 = load ptr, ptr %10, align 8
  %85 = load i32, ptr %11, align 4
  %86 = insertvalue { ptr, i32 } poison, ptr %84, 0
  %87 = insertvalue { ptr, i32 } %86, i32 %85, 1
  resume { ptr, i32 } %87

88:                                               ; preds = %79
  unreachable
}