; Function Attrs: mustprogress uwtable
define void @_ZN11RecVolumes54TestEP11CommandDataPKw(ptr noundef nonnull align 8 dereferenceable(112) %0, ptr nocapture noundef readonly %1, ptr noundef %2) local_unnamed_addr #0 align 2 personality ptr @__gxx_personality_v0 {
  %4 = alloca %class.uiMsgStore, align 8
  %5 = alloca [2048 x i32], align 16
  %6 = alloca %class.File, align 8
  %7 = alloca i32, align 4
  call void @_Z8wcsncpyzPwPKwm(ptr noundef nonnull %5, ptr noundef %2, i64 noundef 2048)
  %8 = call noundef zeroext i1 @_Z9FileExistPKw(ptr noundef nonnull %5)
  br i1 %8, label %.lr.ph, label %.loopexit

.lr.ph:                                           ; preds = %3
  %9 = getelementptr inbounds i8, ptr %1, i64 57428
  %10 = getelementptr inbounds i8, ptr %4, i64 64
  %11 = getelementptr inbounds i8, ptr %4, i64 104
  %12 = getelementptr inbounds i8, ptr %4, i64 96
  %13 = getelementptr inbounds i8, ptr %4, i64 8
  br label %14

14:                                               ; preds = %.lr.ph, %43
  %.022 = phi i32 [ 0, %.lr.ph ], [ %.2, %43 ]
  call void @_ZN4FileC1Ev(ptr noundef nonnull align 8 dereferenceable(8256) %6)
  %15 = invoke noundef zeroext i1 @_ZN4File4OpenEPKwj(ptr noundef nonnull align 8 dereferenceable(8256) %6, ptr noundef nonnull %5, i32 noundef 0)
          to label %16 unwind label %18

16:                                               ; preds = %14
  br i1 %15, label %20, label %17

17:                                               ; preds = %16
  invoke void @_ZN12ErrorHandler12OpenErrorMsgEPKw(ptr noundef nonnull align 4 dereferenceable(14) @ErrHandler, ptr noundef nonnull %5)
          to label %43 unwind label %18, !llvm.loop !52

18:                                               ; preds = %_Z9uiMsgBaseIRA2048_wJS1_EEvR10uiMsgStoreOT_DpOT0_.exit.i, %42, %41, %27, %23, %20, %17, %14
  %19 = landingpad { ptr, i32 }
          cleanup
  call void @_ZN4FileD1Ev(ptr noundef nonnull align 8 dereferenceable(8256) %6) #14
  resume { ptr, i32 } %19

20:                                               ; preds = %16
  %21 = invoke noundef zeroext i1 @_Z18uiStartFileExtractPKwbbb(ptr noundef nonnull %5, i1 noundef zeroext false, i1 noundef zeroext true, i1 noundef zeroext false)
          to label %22 unwind label %18

22:                                               ; preds = %20
  br i1 %21, label %23, label %.thread17

.thread17:                                        ; preds = %22
  call void @_ZN4FileD1Ev(ptr noundef nonnull align 8 dereferenceable(8256) %6) #14
  br label %.loopexit

23:                                               ; preds = %22
  %24 = icmp eq i32 %.022, 0
  %25 = invoke noundef i32 @_ZN11RecVolumes510ReadHeaderEP4Fileb(ptr noundef nonnull align 8 dereferenceable(112) %0, ptr noundef nonnull %6, i1 noundef zeroext %24)
          to label %26 unwind label %18, !range !38

26:                                               ; preds = %23
  %.not = icmp eq i32 %25, 0
  br i1 %.not, label %.thread, label %27

27:                                               ; preds = %26
  %28 = load i8, ptr %9, align 4
  %29 = trunc i8 %28 to i1
  %30 = select i1 %29, i32 8, i32 12
  invoke void @_Z11CalcFileSumP4FilePjPhjlj(ptr noundef nonnull %6, ptr noundef nonnull %7, ptr noundef null, i32 noundef 1, i64 noundef 9223372034707292159, i32 noundef %30)
          to label %31 unwind label %18

31:                                               ; preds = %27
  %32 = add i32 %.022, 1
  %33 = load i32, ptr %7, align 4
  %34 = zext nneg i32 %25 to i64
  %35 = load ptr, ptr %0, align 8
  %36 = getelementptr inbounds %struct.RecVolItem, ptr %35, i64 %34, i32 2
  %37 = load i32, ptr %36, align 8
  %38 = icmp eq i32 %33, %37
  br i1 %38, label %42, label %.thread

.thread:                                          ; preds = %26, %31
  %.116 = phi i32 [ %32, %31 ], [ %.022, %26 ]
  call void @llvm.lifetime.start.p0(i64 112, ptr nonnull %4)
  br label %39

39:                                               ; preds = %39, %.thread
  %indvars.iv.i.i = phi i64 [ 0, %.thread ], [ %indvars.iv.next.i.i, %39 ]
  %40 = getelementptr inbounds [8 x ptr], ptr %4, i64 0, i64 %indvars.iv.i.i
  store ptr @.str.6, ptr %40, align 8
  %indvars.iv.next.i.i = add nuw nsw i64 %indvars.iv.i.i, 1
  %exitcond.not.i.i = icmp eq i64 %indvars.iv.next.i.i, 8
  br i1 %exitcond.not.i.i, label %_Z9uiMsgBaseIRA2048_wJS1_EEvR10uiMsgStoreOT_DpOT0_.exit.i, label %39, !llvm.loop !11

_Z9uiMsgBaseIRA2048_wJS1_EEvR10uiMsgStoreOT_DpOT0_.exit.i: ; preds = %39
  call void @llvm.memset.p0.i64(ptr noundef nonnull align 8 dereferenceable(40) %10, i8 0, i64 40, i1 false)
  store i32 3, ptr %11, align 8
  store ptr %5, ptr %4, align 8
  store i32 2, ptr %12, align 8
  store ptr %5, ptr %13, align 8
  invoke void @_ZN10uiMsgStore3MsgEv(ptr noundef nonnull align 8 dereferenceable(108) %4)
          to label %41 unwind label %18

41:                                               ; preds = %_Z9uiMsgBaseIRA2048_wJS1_EEvR10uiMsgStoreOT_DpOT0_.exit.i
  call void @llvm.lifetime.end.p0(i64 112, ptr nonnull %4)
  invoke void @_ZN12ErrorHandler12SetErrorCodeE8RAR_EXIT(ptr noundef nonnull align 4 dereferenceable(14) @ErrHandler, i32 noundef 3)
          to label %42 unwind label %18

42:                                               ; preds = %31, %41
  %.115 = phi i32 [ %.116, %41 ], [ %32, %31 ]
  invoke void @_Z14NextVolumeNamePwjb(ptr noundef nonnull %5, i32 noundef 2048, i1 noundef zeroext false)
          to label %43 unwind label %18

43:                                               ; preds = %42, %17
  %.2 = phi i32 [ %.022, %17 ], [ %.115, %42 ]
  call void @_ZN4FileD1Ev(ptr noundef nonnull align 8 dereferenceable(8256) %6) #14
  %44 = call noundef zeroext i1 @_Z9FileExistPKw(ptr noundef nonnull %5)
  br i1 %44, label %14, label %.loopexit

.loopexit:                                        ; preds = %43, %3, %.thread17
  ret void
}